target datalayout = "e-m:e-p270:32:32-p271:32:32-p272:64:64-i64:64-i128:128-f80:128-n8:16:32:64-S128"
target triple = "x86_64-pc-linux-gnu"

%"struct.icu_77::number::impl::DecimalFormatProperties" = type <{ %"class.icu_77::number::impl::NullableValue", %"class.icu_77::number::impl::NullableValue.0", %"class.icu_77::number::impl::CurrencyPluralInfoWrapper", %"class.icu_77::number::impl::NullableValue.1", i8, i8, i8, i8, i8, [3 x i8], i32, i32, i8, [3 x i8], i32, i32, i32, i32, i32, i32, i32, i32, i32, i32, i32, %"class.icu_77::UnicodeString", %"class.icu_77::UnicodeString", %"class.icu_77::UnicodeString", %"class.icu_77::UnicodeString", %"class.icu_77::number::impl::NullableValue.3", %"class.icu_77::UnicodeString", i8, i8, [2 x i8], %"class.icu_77::number::impl::NullableValue.4", i8, i8, [2 x i8], i32, [4 x i8], %"class.icu_77::UnicodeString", %"class.icu_77::UnicodeString", %"class.icu_77::UnicodeString", %"class.icu_77::UnicodeString", double, %"class.icu_77::number::impl::NullableValue.5", i32, i8, [3 x i8] }>
%"class.icu_77::number::impl::NullableValue" = type { i8, i32 }
%"class.icu_77::number::impl::NullableValue.0" = type { i8, [7 x i8], %"class.icu_77::CurrencyUnit" }
%"class.icu_77::CurrencyUnit" = type { %"class.icu_77::MeasureUnit.base", [4 x i16], [4 x i8] }
%"class.icu_77::MeasureUnit.base" = type <{ %"class.icu_77::UObject", ptr, i16, i8 }>
%"class.icu_77::UObject" = type { ptr }
%"class.icu_77::number::impl::CurrencyPluralInfoWrapper" = type { %"class.icu_77::LocalPointer" }
%"class.icu_77::LocalPointer" = type { %"class.icu_77::LocalPointerBase" }
%"class.icu_77::LocalPointerBase" = type { ptr }
%"class.icu_77::number::impl::NullableValue.1" = type { i8, i32 }
%"class.icu_77::number::impl::NullableValue.3" = type { i8, i32 }
%"class.icu_77::number::impl::NullableValue.4" = type { i8, i32 }
%"class.icu_77::UnicodeString" = type { %"class.icu_77::Replaceable", %"union.icu_77::UnicodeString::StackBufferOrFields" }
%"class.icu_77::Replaceable" = type { %"class.icu_77::UObject" }
%"union.icu_77::UnicodeString::StackBufferOrFields" = type { %struct.anon.2, [32 x i8] }
%struct.anon.2 = type { i16, i32, i32, ptr }
%"class.icu_77::number::impl::NullableValue.5" = type { i8, i32 }

; Function Attrs: mustprogress nounwind uwtable
define linkonce_odr void @_ZN6icu_776number4impl13NullableValueI25UNumberFormatRoundingModeE7nullifyEv(ptr noundef nonnull align 4 dereferenceable(8) %0) #1 comdat align 2 {
  %2 = alloca ptr, align 8
  store ptr %0, ptr %2, align 8, !tbaa !45
  %3 = load ptr, ptr %2, align 8
  %4 = getelementptr inbounds nuw %"class.icu_77::number::impl::NullableValue.5", ptr %3, i32 0, i32 0
  store i8 1, ptr %4, align 4, !tbaa !47
  ret void
}

; Function Attrs: mustprogress nounwind uwtable
define linkonce_odr void @_ZN6icu_776number4impl13NullableValueINS1_9ParseModeEE7nullifyEv(ptr noundef nonnull align 4 dereferenceable(8) %0) #1 comdat align 2 {
  %2 = alloca ptr, align 8
  store ptr %0, ptr %2, align 8, !tbaa !40
  %3 = load ptr, ptr %2, align 8
  %4 = getelementptr inbounds nuw %"class.icu_77::number::impl::NullableValue.4", ptr %3, i32 0, i32 0
  store i8 1, ptr %4, align 4, !tbaa !42
  ret void
}

; Function Attrs: mustprogress nounwind uwtable
define linkonce_odr void @_ZN6icu_776number4impl13NullableValueI24UNumberFormatPadPositionE7nullifyEv(ptr noundef nonnull align 4 dereferenceable(8) %0) #1 comdat align 2 {
  %2 = alloca ptr, align 8
  store ptr %0, ptr %2, align 8, !tbaa !35
  %3 = load ptr, ptr %2, align 8
  %4 = getelementptr inbounds nuw %"class.icu_77::number::impl::NullableValue.3", ptr %3, i32 0, i32 0
  store i8 1, ptr %4, align 4, !tbaa !37
  ret void
}

; Function Attrs: mustprogress nounwind uwtable
define linkonce_odr void @_ZN6icu_776number4impl13NullableValueI14UCurrencyUsageE7nullifyEv(ptr noundef nonnull align 4 dereferenceable(8) %0) #1 comdat align 2 {
  %2 = alloca ptr, align 8
  store ptr %0, ptr %2, align 8, !tbaa !25
  %3 = load ptr, ptr %2, align 8
  %4 = getelementptr inbounds nuw %"class.icu_77::number::impl::NullableValue.1", ptr %3, i32 0, i32 0
  store i8 1, ptr %4, align 4, !tbaa !27
  ret void
}

; Function Attrs: mustprogress nounwind uwtable
define linkonce_odr void @_ZN6icu_7712LocalPointerINS_18CurrencyPluralInfoEE12adoptInsteadEPS1_(ptr noundef nonnull align 8 dereferenceable(8) %0, ptr noundef %1) #1 comdat align 2 {
  %3 = alloca ptr, align 8
  %4 = alloca ptr, align 8
  store ptr %0, ptr %3, align 8, !tbaa !87
  store ptr %1, ptr %4, align 8, !tbaa !89
  %5 = load ptr, ptr %3, align 8
  %6 = getelementptr inbounds nuw %"class.icu_77::LocalPointerBase", ptr %5, i32 0, i32 0
  %7 = load ptr, ptr %6, align 8, !tbaa !90
  %8 = icmp eq ptr %7, null
  br i1 %8, label %13, label %9

9:                                                ; preds = %2
  %10 = load ptr, ptr %7, align 8, !tbaa !32
  %11 = getelementptr inbounds ptr, ptr %10, i64 1
  %12 = load ptr, ptr %11, align 8
  call void %12(ptr noundef nonnull align 8 dereferenceable(36) %7) #9
  br label %13

13:                                               ; preds = %9, %2
  %14 = load ptr, ptr %4, align 8, !tbaa !89
  %15 = getelementptr inbounds nuw %"class.icu_77::LocalPointerBase", ptr %5, i32 0, i32 0
  store ptr %14, ptr %15, align 8, !tbaa !90
  ret void
}

; Function Attrs: mustprogress nounwind uwtable
define linkonce_odr void @_ZN6icu_776number4impl13NullableValueINS_12CurrencyUnitEE7nullifyEv(ptr noundef nonnull align 8 dereferenceable(40) %0) #1 comdat align 2 {
  %2 = alloca ptr, align 8
  store ptr %0, ptr %2, align 8, !tbaa !14
  %3 = load ptr, ptr %2, align 8
  %4 = getelementptr inbounds nuw %"class.icu_77::number::impl::NullableValue.0", ptr %3, i32 0, i32 0
  store i8 1, ptr %4, align 8, !tbaa !16
  ret void
}

; Function Attrs: mustprogress nounwind uwtable
define linkonce_odr void @_ZN6icu_776number4impl13NullableValueI19UNumberCompactStyleE7nullifyEv(ptr noundef nonnull align 4 dereferenceable(8) %0) #1 comdat align 2 {
  %2 = alloca ptr, align 8
  store ptr %0, ptr %2, align 8, !tbaa !8
  %3 = load ptr, ptr %2, align 8
  %4 = getelementptr inbounds nuw %"class.icu_77::number::impl::NullableValue", ptr %3, i32 0, i32 0
  store i8 1, ptr %4, align 4, !tbaa !10
  ret void
}

; Function Attrs: mustprogress uwtable
define void @_ZN6icu_776number4impl23DecimalFormatProperties5clearEv(ptr noundef nonnull align 8 dereferenceable(757) %0) #0 align 2 {
  %2 = alloca ptr, align 8
  store ptr %0, ptr %2, align 8, !tbaa !3
  %3 = load ptr, ptr %2, align 8
  %4 = getelementptr inbounds nuw %"struct.icu_77::number::impl::DecimalFormatProperties", ptr %3, i32 0, i32 0
  call void @_ZN6icu_776number4impl13NullableValueI19UNumberCompactStyleE7nullifyEv(ptr noundef nonnull align 4 dereferenceable(8) %4)
  %5 = getelementptr inbounds nuw %"struct.icu_77::number::impl::DecimalFormatProperties", ptr %3, i32 0, i32 1
  call void @_ZN6icu_776number4impl13NullableValueINS_12CurrencyUnitEE7nullifyEv(ptr noundef nonnull align 8 dereferenceable(40) %5)
  %6 = getelementptr inbounds nuw %"struct.icu_77::number::impl::DecimalFormatProperties", ptr %3, i32 0, i32 2
  %7 = getelementptr inbounds nuw %"class.icu_77::number::impl::CurrencyPluralInfoWrapper", ptr %6, i32 0, i32 0
  call void @_ZN6icu_7712LocalPointerINS_18CurrencyPluralInfoEE12adoptInsteadEPS1_(ptr noundef nonnull align 8 dereferenceable(8) %7, ptr noundef null)
  %8 = getelementptr inbounds nuw %"struct.icu_77::number::impl::DecimalFormatProperties", ptr %3, i32 0, i32 3
  call void @_ZN6icu_776number4impl13NullableValueI14UCurrencyUsageE7nullifyEv(ptr noundef nonnull align 4 dereferenceable(8) %8)
  %9 = getelementptr inbounds nuw %"struct.icu_77::number::impl::DecimalFormatProperties", ptr %3, i32 0, i32 4
  store i8 0, ptr %9, align 8, !tbaa !50
  %10 = getelementptr inbounds nuw %"struct.icu_77::number::impl::DecimalFormatProperties", ptr %3, i32 0, i32 5
  store i8 0, ptr %10, align 1, !tbaa !61
  %11 = getelementptr inbounds nuw %"struct.icu_77::number::impl::DecimalFormatProperties", ptr %3, i32 0, i32 6
  store i8 0, ptr %11, align 2, !tbaa !62
  %12 = getelementptr inbounds nuw %"struct.icu_77::number::impl::DecimalFormatProperties", ptr %3, i32 0, i32 7
  store i8 0, ptr %12, align 1, !tbaa !63
  %13 = getelementptr inbounds nuw %"struct.icu_77::number::impl::DecimalFormatProperties", ptr %3, i32 0, i32 8
  store i8 0, ptr %13, align 4, !tbaa !64
  %14 = getelementptr inbounds nuw %"struct.icu_77::number::impl::DecimalFormatProperties", ptr %3, i32 0, i32 10
  store i32 -1, ptr %14, align 8, !tbaa !65
  %15 = getelementptr inbounds nuw %"struct.icu_77::number::impl::DecimalFormatProperties", ptr %3, i32 0, i32 11
  store i32 -1, ptr %15, align 4, !tbaa !66
  %16 = getelementptr inbounds nuw %"struct.icu_77::number::impl::DecimalFormatProperties", ptr %3, i32 0, i32 12
  store i8 1, ptr %16, align 8, !tbaa !67
  %17 = getelementptr inbounds nuw %"struct.icu_77::number::impl::DecimalFormatProperties", ptr %3, i32 0, i32 14
  store i32 0, ptr %17, align 4, !tbaa !68
  %18 = getelementptr inbounds nuw %"struct.icu_77::number::impl::DecimalFormatProperties", ptr %3, i32 0, i32 15
  store i32 -1, ptr %18, align 8, !tbaa !69
  %19 = getelementptr inbounds nuw %"struct.icu_77::number::impl::DecimalFormatProperties", ptr %3, i32 0, i32 16
  store i32 -1, ptr %19, align 4, !tbaa !70
  %20 = getelementptr inbounds nuw %"struct.icu_77::number::impl::DecimalFormatProperties", ptr %3, i32 0, i32 17
  store i32 -1, ptr %20, align 8, !tbaa !71
  %21 = getelementptr inbounds nuw %"struct.icu_77::number::impl::DecimalFormatProperties", ptr %3, i32 0, i32 18
  store i32 -1, ptr %21, align 4, !tbaa !72
  %22 = getelementptr inbounds nuw %"struct.icu_77::number::impl::DecimalFormatProperties", ptr %3, i32 0, i32 19
  store i32 -1, ptr %22, align 8, !tbaa !73
  %23 = getelementptr inbounds nuw %"struct.icu_77::number::impl::DecimalFormatProperties", ptr %3, i32 0, i32 20
  store i32 -1, ptr %23, align 4, !tbaa !74
  %24 = getelementptr inbounds nuw %"struct.icu_77::number::impl::DecimalFormatProperties", ptr %3, i32 0, i32 21
  store i32 -1, ptr %24, align 8, !tbaa !75
  %25 = getelementptr inbounds nuw %"struct.icu_77::number::impl::DecimalFormatProperties", ptr %3, i32 0, i32 22
  store i32 -1, ptr %25, align 4, !tbaa !76
  %26 = getelementptr inbounds nuw %"struct.icu_77::number::impl::DecimalFormatProperties", ptr %3, i32 0, i32 23
  store i32 1, ptr %26, align 8, !tbaa !77
  %27 = getelementptr inbounds nuw %"struct.icu_77::number::impl::DecimalFormatProperties", ptr %3, i32 0, i32 24
  store i32 0, ptr %27, align 4, !tbaa !78
  %28 = getelementptr inbounds nuw %"struct.icu_77::number::impl::DecimalFormatProperties", ptr %3, i32 0, i32 25
  call void @_ZN6icu_7713UnicodeString10setToBogusEv(ptr noundef nonnull align 8 dereferenceable(64) %28)
  %29 = getelementptr inbounds nuw %"struct.icu_77::number::impl::DecimalFormatProperties", ptr %3, i32 0, i32 26
  call void @_ZN6icu_7713UnicodeString10setToBogusEv(ptr noundef nonnull align 8 dereferenceable(64) %29)
  %30 = getelementptr inbounds nuw %"struct.icu_77::number::impl::DecimalFormatProperties", ptr %3, i32 0, i32 27
  call void @_ZN6icu_7713UnicodeString10setToBogusEv(ptr noundef nonnull align 8 dereferenceable(64) %30)
  %31 = getelementptr inbounds nuw %"struct.icu_77::number::impl::DecimalFormatProperties", ptr %3, i32 0, i32 28
  call void @_ZN6icu_7713UnicodeString10setToBogusEv(ptr noundef nonnull align 8 dereferenceable(64) %31)
  %32 = getelementptr inbounds nuw %"struct.icu_77::number::impl::DecimalFormatProperties", ptr %3, i32 0, i32 29
  call void @_ZN6icu_776number4impl13NullableValueI24UNumberFormatPadPositionE7nullifyEv(ptr noundef nonnull align 4 dereferenceable(8) %32)
  %33 = getelementptr inbounds nuw %"struct.icu_77::number::impl::DecimalFormatProperties", ptr %3, i32 0, i32 30
  call void @_ZN6icu_7713UnicodeString10setToBogusEv(ptr noundef nonnull align 8 dereferenceable(64) %33)
  %34 = getelementptr inbounds nuw %"struct.icu_77::number::impl::DecimalFormatProperties", ptr %3, i32 0, i32 31
  store i8 0, ptr %34, align 8, !tbaa !79
  %35 = getelementptr inbounds nuw %"struct.icu_77::number::impl::DecimalFormatProperties", ptr %3, i32 0, i32 32
  store i8 0, ptr %35, align 1, !tbaa !80
  %36 = getelementptr inbounds nuw %"struct.icu_77::number::impl::DecimalFormatProperties", ptr %3, i32 0, i32 34
  call void @_ZN6icu_776number4impl13NullableValueINS1_9ParseModeEE7nullifyEv(ptr noundef nonnull align 4 dereferenceable(8) %36)
  %37 = getelementptr inbounds nuw %"struct.icu_77::number::impl::DecimalFormatProperties", ptr %3, i32 0, i32 35
  store i8 0, ptr %37, align 4, !tbaa !81
  %38 = getelementptr inbounds nuw %"struct.icu_77::number::impl::DecimalFormatProperties", ptr %3, i32 0, i32 36
  store i8 0, ptr %38, align 1, !tbaa !82
  %39 = getelementptr inbounds nuw %"struct.icu_77::number::impl::DecimalFormatProperties", ptr %3, i32 0, i32 38
  store i32 2, ptr %39, align 8, !tbaa !83
  %40 = getelementptr inbounds nuw %"struct.icu_77::number::impl::DecimalFormatProperties", ptr %3, i32 0, i32 40
  call void @_ZN6icu_7713UnicodeString10setToBogusEv(ptr noundef nonnull align 8 dereferenceable(64) %40)
  %41 = getelementptr inbounds nuw %"struct.icu_77::number::impl::DecimalFormatProperties", ptr %3, i32 0, i32 41
  call void @_ZN6icu_7713UnicodeString10setToBogusEv(ptr noundef nonnull align 8 dereferenceable(64) %41)
  %42 = getelementptr inbounds nuw %"struct.icu_77::number::impl::DecimalFormatProperties", ptr %3, i32 0, i32 42
  call void @_ZN6icu_7713UnicodeString10setToBogusEv(ptr noundef nonnull align 8 dereferenceable(64) %42)
  %43 = getelementptr inbounds nuw %"struct.icu_77::number::impl::DecimalFormatProperties", ptr %3, i32 0, i32 43
  call void @_ZN6icu_7713UnicodeString10setToBogusEv(ptr noundef nonnull align 8 dereferenceable(64) %43)
  %44 = getelementptr inbounds nuw %"struct.icu_77::number::impl::DecimalFormatProperties", ptr %3, i32 0, i32 44
  store double 0.000000e+00, ptr %44, align 8, !tbaa !84
  %45 = getelementptr inbounds nuw %"struct.icu_77::number::impl::DecimalFormatProperties", ptr %3, i32 0, i32 45
  call void @_ZN6icu_776number4impl13NullableValueI25UNumberFormatRoundingModeE7nullifyEv(ptr noundef nonnull align 4 dereferenceable(8) %45)
  %46 = getelementptr inbounds nuw %"struct.icu_77::number::impl::DecimalFormatProperties", ptr %3, i32 0, i32 46
  store i32 -1, ptr %46, align 8, !tbaa !85
  %47 = getelementptr inbounds nuw %"struct.icu_77::number::impl::DecimalFormatProperties", ptr %3, i32 0, i32 47
  store i8 0, ptr %47, align 4, !tbaa !86
  ret void
}