; Function Attrs: mustprogress uwtable
define void @_ZN6icu_776number4impl23DecimalFormatProperties5clearEv(ptr noundef nonnull align 8 dereferenceable(757) initializes((0, 1), (8, 9), (56, 57), (64, 69), (72, 81), (84, 128)) %0) local_unnamed_addr #0 align 2 {
  store i8 1, ptr %0, align 8, !tbaa !3
  %2 = getelementptr inbounds nuw i8, ptr %0, i64 8
  store i8 1, ptr %2, align 8, !tbaa !9
  %3 = getelementptr inbounds nuw i8, ptr %0, i64 48
  %4 = load ptr, ptr %3, align 8, !tbaa !17
  %5 = icmp eq ptr %4, null
  br i1 %5, label %_ZN6icu_7712LocalPointerINS_18CurrencyPluralInfoEE12adoptInsteadEPS1_.exit, label %6

6:                                                ; preds = %1
  %7 = load ptr, ptr %4, align 8, !tbaa !23
  %8 = getelementptr inbounds nuw i8, ptr %7, i64 8
  %9 = load ptr, ptr %8, align 8
  tail call void %9(ptr noundef nonnull align 8 dereferenceable(36) %4) #5
  br label %_ZN6icu_7712LocalPointerINS_18CurrencyPluralInfoEE12adoptInsteadEPS1_.exit

_ZN6icu_7712LocalPointerINS_18CurrencyPluralInfoEE12adoptInsteadEPS1_.exit: ; preds = %1, %6
  store ptr null, ptr %3, align 8, !tbaa !17
  %10 = getelementptr inbounds nuw i8, ptr %0, i64 56
  store i8 1, ptr %10, align 8, !tbaa !20
  %11 = getelementptr inbounds nuw i8, ptr %0, i64 64
  %12 = getelementptr inbounds nuw i8, ptr %0, i64 72
  tail call void @llvm.memset.p0.i64(ptr noundef nonnull align 8 dereferenceable(5) %11, i8 0, i64 5, i1 false)
  store i32 -1, ptr %12, align 8, !tbaa !35
  %13 = getelementptr inbounds nuw i8, ptr %0, i64 76
  store i32 -1, ptr %13, align 4, !tbaa !44
  %14 = getelementptr inbounds nuw i8, ptr %0, i64 80
  store i8 1, ptr %14, align 8, !tbaa !45
  %15 = getelementptr inbounds nuw i8, ptr %0, i64 84
  store i32 0, ptr %15, align 4, !tbaa !46
  %16 = getelementptr inbounds nuw i8, ptr %0, i64 88
  %17 = getelementptr inbounds nuw i8, ptr %0, i64 120
  tail call void @llvm.memset.p0.i64(ptr noundef nonnull align 8 dereferenceable(32) %16, i8 -1, i64 32, i1 false)
  store i32 1, ptr %17, align 8, !tbaa !47
  %18 = getelementptr inbounds nuw i8, ptr %0, i64 124
  store i32 0, ptr %18, align 4, !tbaa !48
  %19 = getelementptr inbounds nuw i8, ptr %0, i64 128
  tail call void @_ZN6icu_7713UnicodeString10setToBogusEv(ptr noundef nonnull align 8 dereferenceable(64) %19)
  %20 = getelementptr inbounds nuw i8, ptr %0, i64 192
  tail call void @_ZN6icu_7713UnicodeString10setToBogusEv(ptr noundef nonnull align 8 dereferenceable(64) %20)
  %21 = getelementptr inbounds nuw i8, ptr %0, i64 256
  tail call void @_ZN6icu_7713UnicodeString10setToBogusEv(ptr noundef nonnull align 8 dereferenceable(64) %21)
  %22 = getelementptr inbounds nuw i8, ptr %0, i64 320
  tail call void @_ZN6icu_7713UnicodeString10setToBogusEv(ptr noundef nonnull align 8 dereferenceable(64) %22)
  %23 = getelementptr inbounds nuw i8, ptr %0, i64 384
  store i8 1, ptr %23, align 8, !tbaa !26
  %24 = getelementptr inbounds nuw i8, ptr %0, i64 392
  tail call void @_ZN6icu_7713UnicodeString10setToBogusEv(ptr noundef nonnull align 8 dereferenceable(64) %24)
  %25 = getelementptr inbounds nuw i8, ptr %0, i64 456
  store i8 0, ptr %25, align 8, !tbaa !49
  %26 = getelementptr inbounds nuw i8, ptr %0, i64 457
  store i8 0, ptr %26, align 1, !tbaa !50
  %27 = getelementptr inbounds nuw i8, ptr %0, i64 460
  store i8 1, ptr %27, align 4, !tbaa !29
  %28 = getelementptr inbounds nuw i8, ptr %0, i64 468
  store i8 0, ptr %28, align 4, !tbaa !51
  %29 = getelementptr inbounds nuw i8, ptr %0, i64 469
  store i8 0, ptr %29, align 1, !tbaa !52
  %30 = getelementptr inbounds nuw i8, ptr %0, i64 472
  store i32 2, ptr %30, align 8, !tbaa !53
  %31 = getelementptr inbounds nuw i8, ptr %0, i64 480
  tail call void @_ZN6icu_7713UnicodeString10setToBogusEv(ptr noundef nonnull align 8 dereferenceable(64) %31)
  %32 = getelementptr inbounds nuw i8, ptr %0, i64 544
  tail call void @_ZN6icu_7713UnicodeString10setToBogusEv(ptr noundef nonnull align 8 dereferenceable(64) %32)
  %33 = getelementptr inbounds nuw i8, ptr %0, i64 608
  tail call void @_ZN6icu_7713UnicodeString10setToBogusEv(ptr noundef nonnull align 8 dereferenceable(64) %33)
  %34 = getelementptr inbounds nuw i8, ptr %0, i64 672
  tail call void @_ZN6icu_7713UnicodeString10setToBogusEv(ptr noundef nonnull align 8 dereferenceable(64) %34)
  %35 = getelementptr inbounds nuw i8, ptr %0, i64 736
  store double 0.000000e+00, ptr %35, align 8, !tbaa !54
  %36 = getelementptr inbounds nuw i8, ptr %0, i64 744
  store i8 1, ptr %36, align 8, !tbaa !32
  %37 = getelementptr inbounds nuw i8, ptr %0, i64 752
  store i32 -1, ptr %37, align 8, !tbaa !55
  %38 = getelementptr inbounds nuw i8, ptr %0, i64 756
  store i8 0, ptr %38, align 4, !tbaa !56
  ret void
}